target datalayout = "e-m:e-p270:32:32-p271:32:32-p272:64:64-i64:64-i128:128-f80:128-n8:16:32:64-S128"
target triple = "x86_64-pc-linux-gnu"

%"class.icu_77::RBBITableBuilder" = type <{ ptr, ptr, ptr, ptr, ptr, ptr, i32, [4 x i8] }>
%"class.icu_77::UVector" = type { %"class.icu_77::UObject", i32, i32, ptr, ptr, ptr }
%"class.icu_77::UObject" = type { ptr }
%"class.icu_77::RBBIRuleBuilder" = type { ptr, ptr, ptr, ptr, ptr, %"class.icu_77::UnicodeString", ptr, ptr, ptr, ptr, ptr, ptr, i8, i8, ptr, ptr, ptr, ptr }
%"class.icu_77::UnicodeString" = type { %"class.icu_77::Replaceable", %"union.icu_77::UnicodeString::StackBufferOrFields" }
%"class.icu_77::Replaceable" = type { %"class.icu_77::UObject" }
%"union.icu_77::UnicodeString::StackBufferOrFields" = type { %struct.anon.0, [32 x i8] }
%struct.anon.0 = type { i16, i32, i32, ptr }
%"class.icu_77::RBBIStateDescriptor" = type { i8, i32, i32, ptr, i32, ptr, ptr }

; Function Attrs: inlinehint mustprogress nounwind uwtable
define linkonce_odr noundef i32 @_ZNK6icu_777UVector4sizeEv(ptr noundef nonnull align 8 dereferenceable(40) %0) #1 comdat align 2 {
  %2 = alloca ptr, align 8
  store ptr %0, ptr %2, align 8, !tbaa !31
  %3 = load ptr, ptr %2, align 8
  %4 = getelementptr inbounds nuw %"class.icu_77::UVector", ptr %3, i32 0, i32 1
  %5 = load i32, ptr %4, align 8, !tbaa !32
  ret i32 %5
}

; Function Attrs: mustprogress uwtable
define void @_ZN6icu_7716RBBITableBuilder19mergeRuleStatusValsEv(ptr noundef nonnull align 8 dereferenceable(52) %0) #0 align 2 {
  %2 = alloca ptr, align 8
  %3 = alloca i32, align 4
  %4 = alloca i32, align 4
  %5 = alloca ptr, align 8
  %6 = alloca ptr, align 8
  %7 = alloca i32, align 4
  %8 = alloca i32, align 4
  %9 = alloca i32, align 4
  store ptr %0, ptr %2, align 8, !tbaa !3
  %10 = load ptr, ptr %2, align 8
  call void @llvm.lifetime.start.p0(i64 4, ptr %3) #11
  call void @llvm.lifetime.start.p0(i64 4, ptr %4) #11
  %11 = getelementptr inbounds nuw %"class.icu_77::RBBITableBuilder", ptr %10, i32 0, i32 0
  %12 = load ptr, ptr %11, align 8, !tbaa !14
  %13 = getelementptr inbounds nuw %"class.icu_77::RBBIRuleBuilder", ptr %12, i32 0, i32 17
  %14 = load ptr, ptr %13, align 8, !tbaa !98
  %15 = call noundef i32 @_ZNK6icu_777UVector4sizeEv(ptr noundef nonnull align 8 dereferenceable(40) %14)
  %16 = icmp eq i32 %15, 0
  br i1 %16, label %17, label %30

17:                                               ; preds = %1
  %18 = getelementptr inbounds nuw %"class.icu_77::RBBITableBuilder", ptr %10, i32 0, i32 0
  %19 = load ptr, ptr %18, align 8, !tbaa !14
  %20 = getelementptr inbounds nuw %"class.icu_77::RBBIRuleBuilder", ptr %19, i32 0, i32 17
  %21 = load ptr, ptr %20, align 8, !tbaa !98
  %22 = getelementptr inbounds nuw %"class.icu_77::RBBITableBuilder", ptr %10, i32 0, i32 2
  %23 = load ptr, ptr %22, align 8, !tbaa !19
  call void @_ZN6icu_777UVector10addElementEiR10UErrorCode(ptr noundef nonnull align 8 dereferenceable(40) %21, i32 noundef 1, ptr noundef nonnull align 4 dereferenceable(4) %23)
  %24 = getelementptr inbounds nuw %"class.icu_77::RBBITableBuilder", ptr %10, i32 0, i32 0
  %25 = load ptr, ptr %24, align 8, !tbaa !14
  %26 = getelementptr inbounds nuw %"class.icu_77::RBBIRuleBuilder", ptr %25, i32 0, i32 17
  %27 = load ptr, ptr %26, align 8, !tbaa !98
  %28 = getelementptr inbounds nuw %"class.icu_77::RBBITableBuilder", ptr %10, i32 0, i32 2
  %29 = load ptr, ptr %28, align 8, !tbaa !19
  call void @_ZN6icu_777UVector10addElementEiR10UErrorCode(ptr noundef nonnull align 8 dereferenceable(40) %27, i32 noundef 0, ptr noundef nonnull align 4 dereferenceable(4) %29)
  br label %30

30:                                               ; preds = %17, %1
  store i32 0, ptr %4, align 4, !tbaa !26
  br label %31

31:                                               ; preds = %161, %30
  %32 = load i32, ptr %4, align 4, !tbaa !26
  %33 = getelementptr inbounds nuw %"class.icu_77::RBBITableBuilder", ptr %10, i32 0, i32 3
  %34 = load ptr, ptr %33, align 8, !tbaa !20
  %35 = call noundef i32 @_ZNK6icu_777UVector4sizeEv(ptr noundef nonnull align 8 dereferenceable(40) %34)
  %36 = icmp slt i32 %32, %35
  br i1 %36, label %37, label %164

37:                                               ; preds = %31
  call void @llvm.lifetime.start.p0(i64 8, ptr %5) #11
  %38 = getelementptr inbounds nuw %"class.icu_77::RBBITableBuilder", ptr %10, i32 0, i32 3
  %39 = load ptr, ptr %38, align 8, !tbaa !20
  %40 = load i32, ptr %4, align 4, !tbaa !26
  %41 = call noundef ptr @_ZNK6icu_777UVector9elementAtEi(ptr noundef nonnull align 8 dereferenceable(40) %39, i32 noundef %40)
  store ptr %41, ptr %5, align 8, !tbaa !70
  call void @llvm.lifetime.start.p0(i64 8, ptr %6) #11
  %42 = load ptr, ptr %5, align 8, !tbaa !70
  %43 = getelementptr inbounds nuw %"class.icu_77::RBBIStateDescriptor", ptr %42, i32 0, i32 3
  %44 = load ptr, ptr %43, align 8, !tbaa !99
  store ptr %44, ptr %6, align 8, !tbaa !31
  %45 = load ptr, ptr %6, align 8, !tbaa !31
  %46 = icmp eq ptr %45, null
  br i1 %46, label %47, label %50

47:                                               ; preds = %37
  %48 = load ptr, ptr %5, align 8, !tbaa !70
  %49 = getelementptr inbounds nuw %"class.icu_77::RBBIStateDescriptor", ptr %48, i32 0, i32 4
  store i32 0, ptr %49, align 8, !tbaa !100
  store i32 4, ptr %7, align 4
  br label %158

50:                                               ; preds = %37
  %51 = load ptr, ptr %5, align 8, !tbaa !70
  %52 = getelementptr inbounds nuw %"class.icu_77::RBBIStateDescriptor", ptr %51, i32 0, i32 4
  store i32 -1, ptr %52, align 8, !tbaa !100
  call void @llvm.lifetime.start.p0(i64 4, ptr %8) #11
  store i32 0, ptr %8, align 4, !tbaa !26
  call void @llvm.lifetime.start.p0(i64 4, ptr %9) #11
  store i32 0, ptr %9, align 4, !tbaa !26
  br label %53

53:                                               ; preds = %116, %81, %50
  %54 = load i32, ptr %9, align 4, !tbaa !26
  %55 = getelementptr inbounds nuw %"class.icu_77::RBBITableBuilder", ptr %10, i32 0, i32 0
  %56 = load ptr, ptr %55, align 8, !tbaa !14
  %57 = getelementptr inbounds nuw %"class.icu_77::RBBIRuleBuilder", ptr %56, i32 0, i32 17
  %58 = load ptr, ptr %57, align 8, !tbaa !98
  %59 = call noundef i32 @_ZNK6icu_777UVector4sizeEv(ptr noundef nonnull align 8 dereferenceable(40) %58)
  %60 = icmp slt i32 %54, %59
  br i1 %60, label %61, label %117

61:                                               ; preds = %53
  %62 = load i32, ptr %9, align 4, !tbaa !26
  store i32 %62, ptr %8, align 4, !tbaa !26
  %63 = getelementptr inbounds nuw %"class.icu_77::RBBITableBuilder", ptr %10, i32 0, i32 0
  %64 = load ptr, ptr %63, align 8, !tbaa !14
  %65 = getelementptr inbounds nuw %"class.icu_77::RBBIRuleBuilder", ptr %64, i32 0, i32 17
  %66 = load ptr, ptr %65, align 8, !tbaa !98
  %67 = load i32, ptr %8, align 4, !tbaa !26
  %68 = call noundef i32 @_ZNK6icu_777UVector10elementAtiEi(ptr noundef nonnull align 8 dereferenceable(40) %66, i32 noundef %67)
  %69 = add nsw i32 %68, 1
  %70 = load i32, ptr %9, align 4, !tbaa !26
  %71 = add nsw i32 %70, %69
  store i32 %71, ptr %9, align 4, !tbaa !26
  %72 = load ptr, ptr %6, align 8, !tbaa !31
  %73 = call noundef i32 @_ZNK6icu_777UVector4sizeEv(ptr noundef nonnull align 8 dereferenceable(40) %72)
  %74 = getelementptr inbounds nuw %"class.icu_77::RBBITableBuilder", ptr %10, i32 0, i32 0
  %75 = load ptr, ptr %74, align 8, !tbaa !14
  %76 = getelementptr inbounds nuw %"class.icu_77::RBBIRuleBuilder", ptr %75, i32 0, i32 17
  %77 = load ptr, ptr %76, align 8, !tbaa !98
  %78 = load i32, ptr %8, align 4, !tbaa !26
  %79 = call noundef i32 @_ZNK6icu_777UVector10elementAtiEi(ptr noundef nonnull align 8 dereferenceable(40) %77, i32 noundef %78)
  %80 = icmp ne i32 %73, %79
  br i1 %80, label %81, label %82

81:                                               ; preds = %61
  br label %53, !llvm.loop !101

82:                                               ; preds = %61
  store i32 0, ptr %3, align 4, !tbaa !26
  br label %83

83:                                               ; preds = %104, %82
  %84 = load i32, ptr %3, align 4, !tbaa !26
  %85 = load ptr, ptr %6, align 8, !tbaa !31
  %86 = call noundef i32 @_ZNK6icu_777UVector4sizeEv(ptr noundef nonnull align 8 dereferenceable(40) %85)
  %87 = icmp slt i32 %84, %86
  br i1 %87, label %88, label %107

88:                                               ; preds = %83
  %89 = load ptr, ptr %6, align 8, !tbaa !31
  %90 = load i32, ptr %3, align 4, !tbaa !26
  %91 = call noundef i32 @_ZNK6icu_777UVector10elementAtiEi(ptr noundef nonnull align 8 dereferenceable(40) %89, i32 noundef %90)
  %92 = getelementptr inbounds nuw %"class.icu_77::RBBITableBuilder", ptr %10, i32 0, i32 0
  %93 = load ptr, ptr %92, align 8, !tbaa !14
  %94 = getelementptr inbounds nuw %"class.icu_77::RBBIRuleBuilder", ptr %93, i32 0, i32 17
  %95 = load ptr, ptr %94, align 8, !tbaa !98
  %96 = load i32, ptr %8, align 4, !tbaa !26
  %97 = add nsw i32 %96, 1
  %98 = load i32, ptr %3, align 4, !tbaa !26
  %99 = add nsw i32 %97, %98
  %100 = call noundef i32 @_ZNK6icu_777UVector10elementAtiEi(ptr noundef nonnull align 8 dereferenceable(40) %95, i32 noundef %99)
  %101 = icmp ne i32 %91, %100
  br i1 %101, label %102, label %103

102:                                              ; preds = %88
  br label %107

103:                                              ; preds = %88
  br label %104

104:                                              ; preds = %103
  %105 = load i32, ptr %3, align 4, !tbaa !26
  %106 = add nsw i32 %105, 1
  store i32 %106, ptr %3, align 4, !tbaa !26
  br label %83, !llvm.loop !102

107:                                              ; preds = %102, %83
  %108 = load i32, ptr %3, align 4, !tbaa !26
  %109 = load ptr, ptr %6, align 8, !tbaa !31
  %110 = call noundef i32 @_ZNK6icu_777UVector4sizeEv(ptr noundef nonnull align 8 dereferenceable(40) %109)
  %111 = icmp eq i32 %108, %110
  br i1 %111, label %112, label %116

112:                                              ; preds = %107
  %113 = load i32, ptr %8, align 4, !tbaa !26
  %114 = load ptr, ptr %5, align 8, !tbaa !70
  %115 = getelementptr inbounds nuw %"class.icu_77::RBBIStateDescriptor", ptr %114, i32 0, i32 4
  store i32 %113, ptr %115, align 8, !tbaa !100
  br label %117

116:                                              ; preds = %107
  br label %53, !llvm.loop !101

117:                                              ; preds = %112, %53
  %118 = load ptr, ptr %5, align 8, !tbaa !70
  %119 = getelementptr inbounds nuw %"class.icu_77::RBBIStateDescriptor", ptr %118, i32 0, i32 4
  %120 = load i32, ptr %119, align 8, !tbaa !100
  %121 = icmp eq i32 %120, -1
  br i1 %121, label %122, label %157

122:                                              ; preds = %117
  %123 = getelementptr inbounds nuw %"class.icu_77::RBBITableBuilder", ptr %10, i32 0, i32 0
  %124 = load ptr, ptr %123, align 8, !tbaa !14
  %125 = getelementptr inbounds nuw %"class.icu_77::RBBIRuleBuilder", ptr %124, i32 0, i32 17
  %126 = load ptr, ptr %125, align 8, !tbaa !98
  %127 = call noundef i32 @_ZNK6icu_777UVector4sizeEv(ptr noundef nonnull align 8 dereferenceable(40) %126)
  %128 = load ptr, ptr %5, align 8, !tbaa !70
  %129 = getelementptr inbounds nuw %"class.icu_77::RBBIStateDescriptor", ptr %128, i32 0, i32 4
  store i32 %127, ptr %129, align 8, !tbaa !100
  %130 = getelementptr inbounds nuw %"class.icu_77::RBBITableBuilder", ptr %10, i32 0, i32 0
  %131 = load ptr, ptr %130, align 8, !tbaa !14
  %132 = getelementptr inbounds nuw %"class.icu_77::RBBIRuleBuilder", ptr %131, i32 0, i32 17
  %133 = load ptr, ptr %132, align 8, !tbaa !98
  %134 = load ptr, ptr %6, align 8, !tbaa !31
  %135 = call noundef i32 @_ZNK6icu_777UVector4sizeEv(ptr noundef nonnull align 8 dereferenceable(40) %134)
  %136 = getelementptr inbounds nuw %"class.icu_77::RBBITableBuilder", ptr %10, i32 0, i32 2
  %137 = load ptr, ptr %136, align 8, !tbaa !19
  call void @_ZN6icu_777UVector10addElementEiR10UErrorCode(ptr noundef nonnull align 8 dereferenceable(40) %133, i32 noundef %135, ptr noundef nonnull align 4 dereferenceable(4) %137)
  store i32 0, ptr %3, align 4, !tbaa !26
  br label %138

138:                                              ; preds = %153, %122
  %139 = load i32, ptr %3, align 4, !tbaa !26
  %140 = load ptr, ptr %6, align 8, !tbaa !31
  %141 = call noundef i32 @_ZNK6icu_777UVector4sizeEv(ptr noundef nonnull align 8 dereferenceable(40) %140)
  %142 = icmp slt i32 %139, %141
  br i1 %142, label %143, label %156

143:                                              ; preds = %138
  %144 = getelementptr inbounds nuw %"class.icu_77::RBBITableBuilder", ptr %10, i32 0, i32 0
  %145 = load ptr, ptr %144, align 8, !tbaa !14
  %146 = getelementptr inbounds nuw %"class.icu_77::RBBIRuleBuilder", ptr %145, i32 0, i32 17
  %147 = load ptr, ptr %146, align 8, !tbaa !98
  %148 = load ptr, ptr %6, align 8, !tbaa !31
  %149 = load i32, ptr %3, align 4, !tbaa !26
  %150 = call noundef i32 @_ZNK6icu_777UVector10elementAtiEi(ptr noundef nonnull align 8 dereferenceable(40) %148, i32 noundef %149)
  %151 = getelementptr inbounds nuw %"class.icu_77::RBBITableBuilder", ptr %10, i32 0, i32 2
  %152 = load ptr, ptr %151, align 8, !tbaa !19
  call void @_ZN6icu_777UVector10addElementEiR10UErrorCode(ptr noundef nonnull align 8 dereferenceable(40) %147, i32 noundef %150, ptr noundef nonnull align 4 dereferenceable(4) %152)
  br label %153

153:                                              ; preds = %143
  %154 = load i32, ptr %3, align 4, !tbaa !26
  %155 = add nsw i32 %154, 1
  store i32 %155, ptr %3, align 4, !tbaa !26
  br label %138, !llvm.loop !103

156:                                              ; preds = %138
  br label %157

157:                                              ; preds = %156, %117
  call void @llvm.lifetime.end.p0(i64 4, ptr %9) #11
  call void @llvm.lifetime.end.p0(i64 4, ptr %8) #11
  store i32 0, ptr %7, align 4
  br label %158

158:                                              ; preds = %157, %47
  call void @llvm.lifetime.end.p0(i64 8, ptr %6) #11
  call void @llvm.lifetime.end.p0(i64 8, ptr %5) #11
  %159 = load i32, ptr %7, align 4
  switch i32 %159, label %165 [
    i32 0, label %160
    i32 4, label %161
  ]

160:                                              ; preds = %158
  br label %161

161:                                              ; preds = %160, %158
  %162 = load i32, ptr %4, align 4, !tbaa !26
  %163 = add nsw i32 %162, 1
  store i32 %163, ptr %4, align 4, !tbaa !26
  br label %31, !llvm.loop !104

164:                                              ; preds = %31
  call void @llvm.lifetime.end.p0(i64 4, ptr %4) #11
  call void @llvm.lifetime.end.p0(i64 4, ptr %3) #11
  ret void

165:                                              ; preds = %158
  unreachable
}