; Function Attrs: mustprogress uwtable
define void @_ZN6icu_7716RBBITableBuilder19mergeRuleStatusValsEv(ptr noundef nonnull readonly align 8 captures(none) dereferenceable(52) %0) local_unnamed_addr #0 align 2 {
  %2 = load ptr, ptr %0, align 8, !tbaa !3
  %3 = getelementptr inbounds nuw i8, ptr %2, i64 184
  %4 = load ptr, ptr %3, align 8, !tbaa !89
  %5 = getelementptr inbounds nuw i8, ptr %4, i64 8
  %6 = load i32, ptr %5, align 8, !tbaa !20
  %7 = icmp eq i32 %6, 0
  br i1 %7, label %8, label %15

8:                                                ; preds = %1
  %9 = getelementptr inbounds nuw i8, ptr %0, i64 16
  %10 = load ptr, ptr %9, align 8, !tbaa !15
  tail call void @_ZN6icu_777UVector10addElementEiR10UErrorCode(ptr noundef nonnull align 8 dereferenceable(40) %4, i32 noundef 1, ptr noundef nonnull align 4 dereferenceable(4) %10)
  %11 = load ptr, ptr %0, align 8, !tbaa !3
  %12 = getelementptr inbounds nuw i8, ptr %11, i64 184
  %13 = load ptr, ptr %12, align 8, !tbaa !89
  %14 = load ptr, ptr %9, align 8, !tbaa !15
  tail call void @_ZN6icu_777UVector10addElementEiR10UErrorCode(ptr noundef nonnull align 8 dereferenceable(40) %13, i32 noundef 0, ptr noundef nonnull align 4 dereferenceable(4) %14)
  br label %15

15:                                               ; preds = %8, %1
  %16 = getelementptr inbounds nuw i8, ptr %0, i64 24
  %17 = load ptr, ptr %16, align 8, !tbaa !19
  %18 = getelementptr inbounds nuw i8, ptr %17, i64 8
  %19 = load i32, ptr %18, align 8, !tbaa !20
  %20 = icmp sgt i32 %19, 0
  br i1 %20, label %.lr.ph48, label %._crit_edge49

.lr.ph48:                                         ; preds = %15
  %21 = getelementptr inbounds nuw i8, ptr %0, i64 16
  br label %22

22:                                               ; preds = %.lr.ph48, %.loopexit
  %23 = phi ptr [ %17, %.lr.ph48 ], [ %89, %.loopexit ]
  %.03346 = phi i32 [ 0, %.lr.ph48 ], [ %88, %.loopexit ]
  %24 = tail call noundef ptr @_ZNK6icu_777UVector9elementAtEi(ptr noundef nonnull align 8 dereferenceable(40) %23, i32 noundef %.03346)
  %25 = getelementptr inbounds nuw i8, ptr %24, i64 16
  %26 = load ptr, ptr %25, align 8, !tbaa !90
  %27 = icmp eq ptr %26, null
  %28 = getelementptr inbounds nuw i8, ptr %24, i64 24
  br i1 %27, label %29, label %30

29:                                               ; preds = %22
  store i32 0, ptr %28, align 8, !tbaa !91
  br label %.loopexit

30:                                               ; preds = %22
  store i32 -1, ptr %28, align 8, !tbaa !91
  %31 = load ptr, ptr %0, align 8, !tbaa !3
  %32 = getelementptr inbounds nuw i8, ptr %31, i64 184
  %33 = load ptr, ptr %32, align 8, !tbaa !89
  %34 = getelementptr inbounds nuw i8, ptr %33, i64 8
  %35 = load i32, ptr %34, align 8, !tbaa !20
  %36 = icmp sgt i32 %35, 0
  br i1 %36, label %.lr.ph42, label %thread-pre-split.thread

.lr.ph42:                                         ; preds = %30
  %37 = getelementptr inbounds nuw i8, ptr %26, i64 8
  br label %38

38:                                               ; preds = %.lr.ph42, %.backedge
  %39 = phi ptr [ %33, %.lr.ph42 ], [ %50, %.backedge ]
  %.040 = phi i32 [ 0, %.lr.ph42 ], [ %42, %.backedge ]
  %40 = tail call noundef i32 @_ZNK6icu_777UVector10elementAtiEi(ptr noundef nonnull align 8 dereferenceable(40) %39, i32 noundef %.040)
  %41 = add nsw i32 %.040, 1
  %42 = add i32 %41, %40
  %43 = load i32, ptr %37, align 8, !tbaa !20
  %44 = load ptr, ptr %0, align 8, !tbaa !3
  %45 = getelementptr inbounds nuw i8, ptr %44, i64 184
  %46 = load ptr, ptr %45, align 8, !tbaa !89
  %47 = tail call noundef i32 @_ZNK6icu_777UVector10elementAtiEi(ptr noundef nonnull align 8 dereferenceable(40) %46, i32 noundef %.040)
  %.not = icmp eq i32 %43, %47
  br i1 %.not, label %.preheader, label %.backedge

.backedge:                                        ; preds = %38, %._crit_edge
  %48 = load ptr, ptr %0, align 8, !tbaa !3
  %49 = getelementptr inbounds nuw i8, ptr %48, i64 184
  %50 = load ptr, ptr %49, align 8, !tbaa !89
  %51 = getelementptr inbounds nuw i8, ptr %50, i64 8
  %52 = load i32, ptr %51, align 8, !tbaa !20
  %53 = icmp slt i32 %42, %52
  br i1 %53, label %38, label %thread-pre-split.loopexit, !llvm.loop !92

.preheader:                                       ; preds = %38
  %54 = load i32, ptr %37, align 8, !tbaa !20
  %55 = icmp sgt i32 %54, 0
  br i1 %55, label %.lr.ph, label %._crit_edge

.lr.ph:                                           ; preds = %.preheader, %62
  %.03237 = phi i32 [ %63, %62 ], [ 0, %.preheader ]
  %56 = tail call noundef i32 @_ZNK6icu_777UVector10elementAtiEi(ptr noundef nonnull align 8 dereferenceable(40) %26, i32 noundef %.03237)
  %57 = load ptr, ptr %0, align 8, !tbaa !3
  %58 = getelementptr inbounds nuw i8, ptr %57, i64 184
  %59 = load ptr, ptr %58, align 8, !tbaa !89
  %60 = add nsw i32 %41, %.03237
  %61 = tail call noundef i32 @_ZNK6icu_777UVector10elementAtiEi(ptr noundef nonnull align 8 dereferenceable(40) %59, i32 noundef %60)
  %.not35 = icmp eq i32 %56, %61
  %.pre.pre = load i32, ptr %37, align 8, !tbaa !20
  br i1 %.not35, label %62, label %._crit_edge

62:                                               ; preds = %.lr.ph
  %63 = add nuw nsw i32 %.03237, 1
  %64 = icmp slt i32 %63, %.pre.pre
  br i1 %64, label %.lr.ph, label %._crit_edge, !llvm.loop !93

._crit_edge:                                      ; preds = %62, %.lr.ph, %.preheader
  %65 = phi i32 [ %54, %.preheader ], [ %.pre.pre, %.lr.ph ], [ %.pre.pre, %62 ]
  %.032.lcssa = phi i32 [ 0, %.preheader ], [ %63, %62 ], [ %.03237, %.lr.ph ]
  %66 = icmp eq i32 %.032.lcssa, %65
  br i1 %66, label %67, label %.backedge

67:                                               ; preds = %._crit_edge
  store i32 %.040, ptr %28, align 8, !tbaa !91
  br label %thread-pre-split

thread-pre-split.loopexit:                        ; preds = %.backedge
  %.pr.pre = load i32, ptr %28, align 8, !tbaa !91
  br label %thread-pre-split

thread-pre-split:                                 ; preds = %thread-pre-split.loopexit, %67
  %68 = phi i32 [ %.040, %67 ], [ %.pr.pre, %thread-pre-split.loopexit ]
  %69 = icmp eq i32 %68, -1
  br i1 %69, label %thread-pre-split.thread, label %.loopexit

thread-pre-split.thread:                          ; preds = %30, %thread-pre-split
  %70 = load ptr, ptr %0, align 8, !tbaa !3
  %71 = getelementptr inbounds nuw i8, ptr %70, i64 184
  %72 = load ptr, ptr %71, align 8, !tbaa !89
  %73 = getelementptr inbounds nuw i8, ptr %72, i64 8
  %74 = load i32, ptr %73, align 8, !tbaa !20
  store i32 %74, ptr %28, align 8, !tbaa !91
  %75 = getelementptr inbounds nuw i8, ptr %26, i64 8
  %76 = load i32, ptr %75, align 8, !tbaa !20
  %77 = load ptr, ptr %21, align 8, !tbaa !15
  tail call void @_ZN6icu_777UVector10addElementEiR10UErrorCode(ptr noundef nonnull align 8 dereferenceable(40) %72, i32 noundef %76, ptr noundef nonnull align 4 dereferenceable(4) %77)
  %78 = load i32, ptr %75, align 8, !tbaa !20
  %79 = icmp sgt i32 %78, 0
  br i1 %79, label %.lr.ph45, label %.loopexit

.lr.ph45:                                         ; preds = %thread-pre-split.thread, %.lr.ph45
  %.143 = phi i32 [ %85, %.lr.ph45 ], [ 0, %thread-pre-split.thread ]
  %80 = load ptr, ptr %0, align 8, !tbaa !3
  %81 = getelementptr inbounds nuw i8, ptr %80, i64 184
  %82 = load ptr, ptr %81, align 8, !tbaa !89
  %83 = tail call noundef i32 @_ZNK6icu_777UVector10elementAtiEi(ptr noundef nonnull align 8 dereferenceable(40) %26, i32 noundef %.143)
  %84 = load ptr, ptr %21, align 8, !tbaa !15
  tail call void @_ZN6icu_777UVector10addElementEiR10UErrorCode(ptr noundef nonnull align 8 dereferenceable(40) %82, i32 noundef %83, ptr noundef nonnull align 4 dereferenceable(4) %84)
  %85 = add nuw nsw i32 %.143, 1
  %86 = load i32, ptr %75, align 8, !tbaa !20
  %87 = icmp slt i32 %85, %86
  br i1 %87, label %.lr.ph45, label %.loopexit, !llvm.loop !94

.loopexit:                                        ; preds = %.lr.ph45, %thread-pre-split.thread, %thread-pre-split, %29
  %88 = add nuw nsw i32 %.03346, 1
  %89 = load ptr, ptr %16, align 8, !tbaa !19
  %90 = getelementptr inbounds nuw i8, ptr %89, i64 8
  %91 = load i32, ptr %90, align 8, !tbaa !20
  %92 = icmp slt i32 %88, %91
  br i1 %92, label %22, label %._crit_edge49, !llvm.loop !95

._crit_edge49:                                    ; preds = %.loopexit, %15
  ret void
}